; Function Attrs: mustprogress nounwind uwtable
define dso_local void @_ZN4node7tracing5Agent5StartEv(ptr noundef nonnull align 8 dereferenceable(1312) %this) local_unnamed_addr #3 align 2 {
entry:
  %started_ = getelementptr inbounds i8, ptr %this, i64 856
  %0 = load i8, ptr %started_, align 8
  %1 = and i8 %0, 1
  %tobool.not = icmp eq i8 %1, 0
  br i1 %tobool.not, label %if.end, label %return

if.end:                                           ; preds = %entry
  %call = tail call noalias noundef nonnull dereferenceable(584) ptr @_Znwm(i64 noundef 584) #13
  %tracing_loop_ = getelementptr inbounds i8, ptr %this, i64 8
  tail call void @_ZN4node7tracing15NodeTraceBufferC1EmPNS0_5AgentEP9uv_loop_s(ptr noundef nonnull align 8 dereferenceable(584) %call, i64 noundef 1024, ptr noundef nonnull %this, ptr noundef nonnull %tracing_loop_) #14
  %tracing_controller_ = getelementptr inbounds i8, ptr %this, i64 976
  %2 = load ptr, ptr %tracing_controller_, align 8
  tail call void @_ZN2v88platform7tracing17TracingController10InitializeEPNS1_11TraceBufferE(ptr noundef nonnull align 8 dereferenceable(96) %2, ptr noundef nonnull %call) #14
  %call4 = tail call i32 @uv_thread_create(ptr noundef nonnull %this, ptr noundef nonnull @"_ZZN4node7tracing5Agent5StartEvEN3$_08__invokeEPv", ptr noundef nonnull %this) #14
  %cmp.not = icmp eq i32 %call4, 0
  br i1 %cmp.not, label %do.end10, label %do.body8

do.body8:                                         ; preds = %if.end
  tail call void @_ZN4node6AssertERKNS_13AssertionInfoE(ptr noundef nonnull align 8 dereferenceable(24) @_ZZN4node7tracing5Agent5StartEvE4args) #14
  tail call void @abort() #15
  unreachable

do.end10:                                         ; preds = %if.end
  store i8 1, ptr %started_, align 8
  br label %return

return:                                           ; preds = %entry, %do.end10
  ret void
}